; Function Attrs: mustprogress uwtable
define internal noundef ptr @_ZL25pj_open_file_with_managerP6pj_ctxPKcS2_(ptr noundef %0, ptr noundef %1, ptr readnone captures(none) %2) #0 {
_ZNSt10unique_ptrIN5osgeo4proj4FileESt14default_deleteIS2_EED2Ev.exit:
  %3 = alloca %"class.std::unique_ptr", align 8
  call void @llvm.lifetime.start.p0(i64 8, ptr nonnull %3) #30
  call void @_ZN5osgeo4proj11FileManager4openEP6pj_ctxPKcNS0_10FileAccessE(ptr dead_on_unwind nonnull writable sret(%"class.std::unique_ptr") align 8 %3, ptr noundef %0, ptr noundef %1, i32 noundef 0)
  %4 = load ptr, ptr %3, align 8, !tbaa !49
  call void @llvm.lifetime.end.p0(i64 8, ptr nonnull %3) #30
  ret ptr %4
}